target datalayout = "e-m:e-p270:32:32-p271:32:32-p272:64:64-i64:64-i128:128-f80:128-n8:16:32:64-S128"
target triple = "x86_64-pc-linux-gnu"

; Function Attrs: nounwind uwtable
define internal zeroext i8 @signatureWithGeneric(ptr noundef %0, ptr noundef %1) #0 {
  %3 = alloca i8, align 1
  %4 = alloca ptr, align 8
  %5 = alloca ptr, align 8
  %6 = alloca ptr, align 8
  %7 = alloca ptr, align 8
  %8 = alloca ptr, align 8
  %9 = alloca i32, align 4
  store ptr %0, ptr %4, align 8
  store ptr %1, ptr %5, align 8
  store ptr null, ptr %6, align 8
  store ptr null, ptr %7, align 8
  %10 = call ptr @getEnv()
  %11 = load ptr, ptr %4, align 8
  %12 = call ptr @inStream_readClassRef(ptr noundef %10, ptr noundef %11)
  store ptr %12, ptr %8, align 8
  %13 = load ptr, ptr %4, align 8
  %14 = call zeroext i16 @inStream_error(ptr noundef %13)
  %15 = icmp ne i16 %14, 0
  br i1 %15, label %16, label %17

16:                                               ; preds = %2
  store i8 1, ptr %3, align 1
  br label %38

17:                                               ; preds = %2
  %18 = load ptr, ptr %8, align 8
  %19 = call i32 @classSignature(ptr noundef %18, ptr noundef %6, ptr noundef %7)
  store i32 %19, ptr %9, align 4
  %20 = load i32, ptr %9, align 4
  %21 = icmp ne i32 %20, 0
  br i1 %21, label %22, label %26

22:                                               ; preds = %17
  %23 = load ptr, ptr %5, align 8
  %24 = load i32, ptr %9, align 4
  %25 = call zeroext i16 @map2jdwpError(i32 noundef %24)
  call void @outStream_setError(ptr noundef %23, i16 noundef zeroext %25)
  store i8 1, ptr %3, align 1
  br label %38

26:                                               ; preds = %17
  %27 = load ptr, ptr %5, align 8
  %28 = load ptr, ptr %6, align 8
  %29 = call zeroext i16 @outStream_writeString(ptr noundef %27, ptr noundef %28)
  %30 = load ptr, ptr %5, align 8
  %31 = load ptr, ptr %7, align 8
  call void @writeGenericSignature(ptr noundef %30, ptr noundef %31)
  %32 = load ptr, ptr %6, align 8
  call void @jvmtiDeallocate(ptr noundef %32)
  %33 = load ptr, ptr %7, align 8
  %34 = icmp ne ptr %33, null
  br i1 %34, label %35, label %37

35:                                               ; preds = %26
  %36 = load ptr, ptr %7, align 8
  call void @jvmtiDeallocate(ptr noundef %36)
  br label %37

37:                                               ; preds = %35, %26
  store i8 1, ptr %3, align 1
  br label %38

38:                                               ; preds = %37, %22, %16
  %39 = load i8, ptr %3, align 1
  ret i8 %39
}