; Function Attrs: nounwind uwtable
define internal noundef zeroext i8 @signatureWithGeneric(ptr noundef %0, ptr noundef %1) #0 {
  %3 = alloca ptr, align 8
  %4 = alloca ptr, align 8
  store ptr null, ptr %3, align 8
  store ptr null, ptr %4, align 8
  %5 = tail call ptr @getEnv() #3
  %6 = tail call ptr @inStream_readClassRef(ptr noundef %5, ptr noundef %0) #3
  %7 = tail call zeroext i16 @inStream_error(ptr noundef %0) #3
  %.not = icmp eq i16 %7, 0
  br i1 %.not, label %8, label %19

8:                                                ; preds = %2
  %9 = call i32 @classSignature(ptr noundef %6, ptr noundef nonnull %3, ptr noundef nonnull %4) #3
  %.not9 = icmp eq i32 %9, 0
  br i1 %.not9, label %12, label %10

10:                                               ; preds = %8
  %11 = call zeroext i16 @map2jdwpError(i32 noundef %9) #3
  call void @outStream_setError(ptr noundef %1, i16 noundef zeroext %11) #3
  br label %19

12:                                               ; preds = %8
  %13 = load ptr, ptr %3, align 8
  %14 = call zeroext i16 @outStream_writeString(ptr noundef %1, ptr noundef %13) #3
  %15 = load ptr, ptr %4, align 8
  call void @writeGenericSignature(ptr noundef %1, ptr noundef %15) #3
  %16 = load ptr, ptr %3, align 8
  call void @jvmtiDeallocate(ptr noundef %16) #3
  %17 = load ptr, ptr %4, align 8
  %.not10 = icmp eq ptr %17, null
  br i1 %.not10, label %19, label %18

18:                                               ; preds = %12
  call void @jvmtiDeallocate(ptr noundef nonnull %17) #3
  br label %19

19:                                               ; preds = %12, %18, %2, %10
  ret i8 1
}